target datalayout = "e-m:e-p270:32:32-p271:32:32-p272:64:64-i64:64-i128:128-f80:128-n8:16:32:64-S128"
target triple = "x86_64-pc-linux-gnu"

; Function Attrs: mustprogress nounwind uwtable
define noundef i64 @_ZN6duckdb20utf8proc_encode_charEiPh(i32 noundef %0, ptr noundef %1) #0 {
  %3 = alloca i64, align 8
  %4 = alloca i32, align 4
  %5 = alloca ptr, align 8
  store i32 %0, ptr %4, align 4, !tbaa !12
  store ptr %1, ptr %5, align 8, !tbaa !7
  %6 = load i32, ptr %4, align 4, !tbaa !12
  %7 = icmp slt i32 %6, 0
  br i1 %7, label %8, label %9

8:                                                ; preds = %2
  store i64 0, ptr %3, align 8
  br label %87

9:                                                ; preds = %2
  %10 = load i32, ptr %4, align 4, !tbaa !12
  %11 = icmp slt i32 %10, 128
  br i1 %11, label %12, label %17

12:                                               ; preds = %9
  %13 = load i32, ptr %4, align 4, !tbaa !12
  %14 = trunc i32 %13 to i8
  %15 = load ptr, ptr %5, align 8, !tbaa !7
  %16 = getelementptr inbounds i8, ptr %15, i64 0
  store i8 %14, ptr %16, align 1, !tbaa !14
  store i64 1, ptr %3, align 8
  br label %87

17:                                               ; preds = %9
  %18 = load i32, ptr %4, align 4, !tbaa !12
  %19 = icmp slt i32 %18, 2048
  br i1 %19, label %20, label %33

20:                                               ; preds = %17
  %21 = load i32, ptr %4, align 4, !tbaa !12
  %22 = ashr i32 %21, 6
  %23 = add nsw i32 192, %22
  %24 = trunc i32 %23 to i8
  %25 = load ptr, ptr %5, align 8, !tbaa !7
  %26 = getelementptr inbounds i8, ptr %25, i64 0
  store i8 %24, ptr %26, align 1, !tbaa !14
  %27 = load i32, ptr %4, align 4, !tbaa !12
  %28 = and i32 %27, 63
  %29 = add nsw i32 128, %28
  %30 = trunc i32 %29 to i8
  %31 = load ptr, ptr %5, align 8, !tbaa !7
  %32 = getelementptr inbounds i8, ptr %31, i64 1
  store i8 %30, ptr %32, align 1, !tbaa !14
  store i64 2, ptr %3, align 8
  br label %87

33:                                               ; preds = %17
  %34 = load i32, ptr %4, align 4, !tbaa !12
  %35 = icmp slt i32 %34, 65536
  br i1 %35, label %36, label %56

36:                                               ; preds = %33
  %37 = load i32, ptr %4, align 4, !tbaa !12
  %38 = ashr i32 %37, 12
  %39 = add nsw i32 224, %38
  %40 = trunc i32 %39 to i8
  %41 = load ptr, ptr %5, align 8, !tbaa !7
  %42 = getelementptr inbounds i8, ptr %41, i64 0
  store i8 %40, ptr %42, align 1, !tbaa !14
  %43 = load i32, ptr %4, align 4, !tbaa !12
  %44 = ashr i32 %43, 6
  %45 = and i32 %44, 63
  %46 = add nsw i32 128, %45
  %47 = trunc i32 %46 to i8
  %48 = load ptr, ptr %5, align 8, !tbaa !7
  %49 = getelementptr inbounds i8, ptr %48, i64 1
  store i8 %47, ptr %49, align 1, !tbaa !14
  %50 = load i32, ptr %4, align 4, !tbaa !12
  %51 = and i32 %50, 63
  %52 = add nsw i32 128, %51
  %53 = trunc i32 %52 to i8
  %54 = load ptr, ptr %5, align 8, !tbaa !7
  %55 = getelementptr inbounds i8, ptr %54, i64 2
  store i8 %53, ptr %55, align 1, !tbaa !14
  store i64 3, ptr %3, align 8
  br label %87

56:                                               ; preds = %33
  %57 = load i32, ptr %4, align 4, !tbaa !12
  %58 = icmp slt i32 %57, 1114112
  br i1 %58, label %59, label %86

59:                                               ; preds = %56
  %60 = load i32, ptr %4, align 4, !tbaa !12
  %61 = ashr i32 %60, 18
  %62 = add nsw i32 240, %61
  %63 = trunc i32 %62 to i8
  %64 = load ptr, ptr %5, align 8, !tbaa !7
  %65 = getelementptr inbounds i8, ptr %64, i64 0
  store i8 %63, ptr %65, align 1, !tbaa !14
  %66 = load i32, ptr %4, align 4, !tbaa !12
  %67 = ashr i32 %66, 12
  %68 = and i32 %67, 63
  %69 = add nsw i32 128, %68
  %70 = trunc i32 %69 to i8
  %71 = load ptr, ptr %5, align 8, !tbaa !7
  %72 = getelementptr inbounds i8, ptr %71, i64 1
  store i8 %70, ptr %72, align 1, !tbaa !14
  %73 = load i32, ptr %4, align 4, !tbaa !12
  %74 = ashr i32 %73, 6
  %75 = and i32 %74, 63
  %76 = add nsw i32 128, %75
  %77 = trunc i32 %76 to i8
  %78 = load ptr, ptr %5, align 8, !tbaa !7
  %79 = getelementptr inbounds i8, ptr %78, i64 2
  store i8 %77, ptr %79, align 1, !tbaa !14
  %80 = load i32, ptr %4, align 4, !tbaa !12
  %81 = and i32 %80, 63
  %82 = add nsw i32 128, %81
  %83 = trunc i32 %82 to i8
  %84 = load ptr, ptr %5, align 8, !tbaa !7
  %85 = getelementptr inbounds i8, ptr %84, i64 3
  store i8 %83, ptr %85, align 1, !tbaa !14
  store i64 4, ptr %3, align 8
  br label %87

86:                                               ; preds = %56
  store i64 0, ptr %3, align 8
  br label %87

87:                                               ; preds = %86, %59, %36, %20, %12, %8
  %88 = load i64, ptr %3, align 8
  ret i64 %88
}

; Function Attrs: mustprogress nounwind uwtable
define internal noundef i64 @_ZN6duckdbL21charbound_encode_charEiPh(i32 noundef %0, ptr noundef %1) #0 {
  %3 = alloca i64, align 8
  %4 = alloca i32, align 4
  %5 = alloca ptr, align 8
  store i32 %0, ptr %4, align 4, !tbaa !12
  store ptr %1, ptr %5, align 8, !tbaa !7
  %6 = load i32, ptr %4, align 4, !tbaa !12
  %7 = icmp slt i32 %6, 0
  br i1 %7, label %8, label %15

8:                                                ; preds = %2
  %9 = load i32, ptr %4, align 4, !tbaa !12
  %10 = icmp eq i32 %9, -1
  br i1 %10, label %11, label %14

11:                                               ; preds = %8
  %12 = load ptr, ptr %5, align 8, !tbaa !7
  %13 = getelementptr inbounds i8, ptr %12, i64 0
  store i8 -1, ptr %13, align 1, !tbaa !14
  store i64 1, ptr %3, align 8
  br label %93

14:                                               ; preds = %8
  store i64 0, ptr %3, align 8
  br label %93

15:                                               ; preds = %2
  %16 = load i32, ptr %4, align 4, !tbaa !12
  %17 = icmp slt i32 %16, 128
  br i1 %17, label %18, label %23

18:                                               ; preds = %15
  %19 = load i32, ptr %4, align 4, !tbaa !12
  %20 = trunc i32 %19 to i8
  %21 = load ptr, ptr %5, align 8, !tbaa !7
  %22 = getelementptr inbounds i8, ptr %21, i64 0
  store i8 %20, ptr %22, align 1, !tbaa !14
  store i64 1, ptr %3, align 8
  br label %93

23:                                               ; preds = %15
  %24 = load i32, ptr %4, align 4, !tbaa !12
  %25 = icmp slt i32 %24, 2048
  br i1 %25, label %26, label %39

26:                                               ; preds = %23
  %27 = load i32, ptr %4, align 4, !tbaa !12
  %28 = ashr i32 %27, 6
  %29 = add nsw i32 192, %28
  %30 = trunc i32 %29 to i8
  %31 = load ptr, ptr %5, align 8, !tbaa !7
  %32 = getelementptr inbounds i8, ptr %31, i64 0
  store i8 %30, ptr %32, align 1, !tbaa !14
  %33 = load i32, ptr %4, align 4, !tbaa !12
  %34 = and i32 %33, 63
  %35 = add nsw i32 128, %34
  %36 = trunc i32 %35 to i8
  %37 = load ptr, ptr %5, align 8, !tbaa !7
  %38 = getelementptr inbounds i8, ptr %37, i64 1
  store i8 %36, ptr %38, align 1, !tbaa !14
  store i64 2, ptr %3, align 8
  br label %93

39:                                               ; preds = %23
  %40 = load i32, ptr %4, align 4, !tbaa !12
  %41 = icmp slt i32 %40, 65536
  br i1 %41, label %42, label %62

42:                                               ; preds = %39
  %43 = load i32, ptr %4, align 4, !tbaa !12
  %44 = ashr i32 %43, 12
  %45 = add nsw i32 224, %44
  %46 = trunc i32 %45 to i8
  %47 = load ptr, ptr %5, align 8, !tbaa !7
  %48 = getelementptr inbounds i8, ptr %47, i64 0
  store i8 %46, ptr %48, align 1, !tbaa !14
  %49 = load i32, ptr %4, align 4, !tbaa !12
  %50 = ashr i32 %49, 6
  %51 = and i32 %50, 63
  %52 = add nsw i32 128, %51
  %53 = trunc i32 %52 to i8
  %54 = load ptr, ptr %5, align 8, !tbaa !7
  %55 = getelementptr inbounds i8, ptr %54, i64 1
  store i8 %53, ptr %55, align 1, !tbaa !14
  %56 = load i32, ptr %4, align 4, !tbaa !12
  %57 = and i32 %56, 63
  %58 = add nsw i32 128, %57
  %59 = trunc i32 %58 to i8
  %60 = load ptr, ptr %5, align 8, !tbaa !7
  %61 = getelementptr inbounds i8, ptr %60, i64 2
  store i8 %59, ptr %61, align 1, !tbaa !14
  store i64 3, ptr %3, align 8
  br label %93

62:                                               ; preds = %39
  %63 = load i32, ptr %4, align 4, !tbaa !12
  %64 = icmp slt i32 %63, 1114112
  br i1 %64, label %65, label %92

65:                                               ; preds = %62
  %66 = load i32, ptr %4, align 4, !tbaa !12
  %67 = ashr i32 %66, 18
  %68 = add nsw i32 240, %67
  %69 = trunc i32 %68 to i8
  %70 = load ptr, ptr %5, align 8, !tbaa !7
  %71 = getelementptr inbounds i8, ptr %70, i64 0
  store i8 %69, ptr %71, align 1, !tbaa !14
  %72 = load i32, ptr %4, align 4, !tbaa !12
  %73 = ashr i32 %72, 12
  %74 = and i32 %73, 63
  %75 = add nsw i32 128, %74
  %76 = trunc i32 %75 to i8
  %77 = load ptr, ptr %5, align 8, !tbaa !7
  %78 = getelementptr inbounds i8, ptr %77, i64 1
  store i8 %76, ptr %78, align 1, !tbaa !14
  %79 = load i32, ptr %4, align 4, !tbaa !12
  %80 = ashr i32 %79, 6
  %81 = and i32 %80, 63
  %82 = add nsw i32 128, %81
  %83 = trunc i32 %82 to i8
  %84 = load ptr, ptr %5, align 8, !tbaa !7
  %85 = getelementptr inbounds i8, ptr %84, i64 2
  store i8 %83, ptr %85, align 1, !tbaa !14
  %86 = load i32, ptr %4, align 4, !tbaa !12
  %87 = and i32 %86, 63
  %88 = add nsw i32 128, %87
  %89 = trunc i32 %88 to i8
  %90 = load ptr, ptr %5, align 8, !tbaa !7
  %91 = getelementptr inbounds i8, ptr %90, i64 3
  store i8 %89, ptr %91, align 1, !tbaa !14
  store i64 4, ptr %3, align 8
  br label %93

92:                                               ; preds = %62
  store i64 0, ptr %3, align 8
  br label %93

93:                                               ; preds = %92, %65, %42, %26, %18, %14, %11
  %94 = load i64, ptr %3, align 8
  ret i64 %94
}

; Function Attrs: mustprogress uwtable
define noundef i64 @_ZN6duckdb17utf8proc_reencodeEPilNS_17utf8proc_option_tE(ptr noundef %0, i64 noundef %1, i32 noundef %2) #2 {
  %4 = alloca i64, align 8
  %5 = alloca ptr, align 8
  %6 = alloca i64, align 8
  %7 = alloca i32, align 4
  %8 = alloca i64, align 8
  %9 = alloca i64, align 8
  %10 = alloca i32, align 4
  store ptr %0, ptr %5, align 8, !tbaa !10
  store i64 %1, ptr %6, align 8, !tbaa !3
  store i32 %2, ptr %7, align 4, !tbaa !30
  %11 = load ptr, ptr %5, align 8, !tbaa !10
  %12 = load i64, ptr %6, align 8, !tbaa !3
  %13 = load i32, ptr %7, align 4, !tbaa !30
  %14 = call noundef i64 @_ZN6duckdb24utf8proc_normalize_utf32EPilNS_17utf8proc_option_tE(ptr noundef %11, i64 noundef %12, i32 noundef %13)
  store i64 %14, ptr %6, align 8, !tbaa !3
  %15 = load i64, ptr %6, align 8, !tbaa !3
  %16 = icmp slt i64 %15, 0
  br i1 %16, label %17, label %19

17:                                               ; preds = %3
  %18 = load i64, ptr %6, align 8, !tbaa !3
  store i64 %18, ptr %4, align 8
  br label %70

19:                                               ; preds = %3
  call void @llvm.lifetime.start.p0(i64 8, ptr %8) #6
  call void @llvm.lifetime.start.p0(i64 8, ptr %9) #6
  store i64 0, ptr %9, align 8, !tbaa !3
  call void @llvm.lifetime.start.p0(i64 4, ptr %10) #6
  %20 = load i32, ptr %7, align 4, !tbaa !30
  %21 = and i32 %20, 2048
  %22 = icmp ne i32 %21, 0
  br i1 %22, label %23, label %44

23:                                               ; preds = %19
  store i64 0, ptr %8, align 8, !tbaa !3
  br label %24

24:                                               ; preds = %40, %23
  %25 = load i64, ptr %8, align 8, !tbaa !3
  %26 = load i64, ptr %6, align 8, !tbaa !3
  %27 = icmp slt i64 %25, %26
  br i1 %27, label %28, label %43

28:                                               ; preds = %24
  %29 = load ptr, ptr %5, align 8, !tbaa !10
  %30 = load i64, ptr %8, align 8, !tbaa !3
  %31 = getelementptr inbounds i32, ptr %29, i64 %30
  %32 = load i32, ptr %31, align 4, !tbaa !12
  store i32 %32, ptr %10, align 4, !tbaa !12
  %33 = load i32, ptr %10, align 4, !tbaa !12
  %34 = load ptr, ptr %5, align 8, !tbaa !10
  %35 = load i64, ptr %9, align 8, !tbaa !3
  %36 = getelementptr inbounds i8, ptr %34, i64 %35
  %37 = call noundef i64 @_ZN6duckdbL21charbound_encode_charEiPh(i32 noundef %33, ptr noundef %36)
  %38 = load i64, ptr %9, align 8, !tbaa !3
  %39 = add nsw i64 %38, %37
  store i64 %39, ptr %9, align 8, !tbaa !3
  br label %40

40:                                               ; preds = %28
  %41 = load i64, ptr %8, align 8, !tbaa !3
  %42 = add nsw i64 %41, 1
  store i64 %42, ptr %8, align 8, !tbaa !3
  br label %24, !llvm.loop !44

43:                                               ; preds = %24
  br label %65

44:                                               ; preds = %19
  store i64 0, ptr %8, align 8, !tbaa !3
  br label %45

45:                                               ; preds = %61, %44
  %46 = load i64, ptr %8, align 8, !tbaa !3
  %47 = load i64, ptr %6, align 8, !tbaa !3
  %48 = icmp slt i64 %46, %47
  br i1 %48, label %49, label %64

49:                                               ; preds = %45
  %50 = load ptr, ptr %5, align 8, !tbaa !10
  %51 = load i64, ptr %8, align 8, !tbaa !3
  %52 = getelementptr inbounds i32, ptr %50, i64 %51
  %53 = load i32, ptr %52, align 4, !tbaa !12
  store i32 %53, ptr %10, align 4, !tbaa !12
  %54 = load i32, ptr %10, align 4, !tbaa !12
  %55 = load ptr, ptr %5, align 8, !tbaa !10
  %56 = load i64, ptr %9, align 8, !tbaa !3
  %57 = getelementptr inbounds i8, ptr %55, i64 %56
  %58 = call noundef i64 @_ZN6duckdb20utf8proc_encode_charEiPh(i32 noundef %54, ptr noundef %57)
  %59 = load i64, ptr %9, align 8, !tbaa !3
  %60 = add nsw i64 %59, %58
  store i64 %60, ptr %9, align 8, !tbaa !3
  br label %61

61:                                               ; preds = %49
  %62 = load i64, ptr %8, align 8, !tbaa !3
  %63 = add nsw i64 %62, 1
  store i64 %63, ptr %8, align 8, !tbaa !3
  br label %45, !llvm.loop !45

64:                                               ; preds = %45
  br label %65

65:                                               ; preds = %64, %43
  %66 = load ptr, ptr %5, align 8, !tbaa !10
  %67 = load i64, ptr %9, align 8, !tbaa !3
  %68 = getelementptr inbounds i8, ptr %66, i64 %67
  store i8 0, ptr %68, align 1, !tbaa !14
  %69 = load i64, ptr %9, align 8, !tbaa !3
  store i64 %69, ptr %4, align 8
  call void @llvm.lifetime.end.p0(i64 4, ptr %10) #6
  call void @llvm.lifetime.end.p0(i64 8, ptr %9) #6
  call void @llvm.lifetime.end.p0(i64 8, ptr %8) #6
  br label %70

70:                                               ; preds = %65, %17
  %71 = load i64, ptr %4, align 8
  ret i64 %71
}