; Function Attrs: mustprogress nofree norecurse nosync nounwind memory(readwrite, inaccessiblemem: none) uwtable
define noundef i64 @_ZN6duckdb17utf8proc_reencodeEPilNS_17utf8proc_option_tE(ptr noundef captures(address) %0, i64 noundef %1, i32 noundef %2) local_unnamed_addr #6 {
  %4 = tail call noundef i64 @_ZN6duckdb24utf8proc_normalize_utf32EPilNS_17utf8proc_option_tE(ptr noundef %0, i64 noundef %1, i32 noundef %2)
  %5 = icmp slt i64 %4, 0
  br i1 %5, label %122, label %6

6:                                                ; preds = %3
  %7 = and i32 %2, 2048
  %.not = icmp eq i32 %7, 0
  %.not42 = icmp eq i64 %4, 0
  br i1 %.not, label %.preheader, label %.preheader33

.preheader33:                                     ; preds = %6
  br i1 %.not42, label %.loopexit, label %.lr.ph

.preheader:                                       ; preds = %6
  br i1 %.not42, label %.loopexit, label %.lr.ph39

.lr.ph:                                           ; preds = %.preheader33, %_ZN6duckdbL21charbound_encode_charEiPh.exit
  %.036 = phi i64 [ %64, %_ZN6duckdbL21charbound_encode_charEiPh.exit ], [ 0, %.preheader33 ]
  %.02735 = phi i64 [ %65, %_ZN6duckdbL21charbound_encode_charEiPh.exit ], [ 0, %.preheader33 ]
  %8 = getelementptr inbounds nuw i32, ptr %0, i64 %.02735
  %9 = load i32, ptr %8, align 4, !tbaa !3
  %10 = getelementptr inbounds nuw i8, ptr %0, i64 %.036
  %11 = icmp slt i32 %9, 0
  br i1 %11, label %12, label %15

12:                                               ; preds = %.lr.ph
  %13 = icmp eq i32 %9, -1
  br i1 %13, label %14, label %_ZN6duckdbL21charbound_encode_charEiPh.exit

14:                                               ; preds = %12
  store i8 -1, ptr %10, align 1, !tbaa !7
  br label %_ZN6duckdbL21charbound_encode_charEiPh.exit

15:                                               ; preds = %.lr.ph
  %16 = icmp samesign ult i32 %9, 128
  br i1 %16, label %17, label %19

17:                                               ; preds = %15
  %18 = trunc nuw nsw i32 %9 to i8
  store i8 %18, ptr %10, align 1, !tbaa !7
  br label %_ZN6duckdbL21charbound_encode_charEiPh.exit

19:                                               ; preds = %15
  %20 = icmp samesign ult i32 %9, 2048
  br i1 %20, label %21, label %29

21:                                               ; preds = %19
  %22 = lshr i32 %9, 6
  %23 = trunc nuw i32 %22 to i8
  %24 = or disjoint i8 %23, -64
  store i8 %24, ptr %10, align 1, !tbaa !7
  %25 = trunc i32 %9 to i8
  %26 = and i8 %25, 63
  %27 = or disjoint i8 %26, -128
  %28 = getelementptr inbounds nuw i8, ptr %10, i64 1
  store i8 %27, ptr %28, align 1, !tbaa !7
  br label %_ZN6duckdbL21charbound_encode_charEiPh.exit

29:                                               ; preds = %19
  %30 = icmp samesign ult i32 %9, 65536
  br i1 %30, label %31, label %44

31:                                               ; preds = %29
  %32 = lshr i32 %9, 12
  %33 = trunc nuw i32 %32 to i8
  %34 = or disjoint i8 %33, -32
  store i8 %34, ptr %10, align 1, !tbaa !7
  %35 = lshr i32 %9, 6
  %36 = trunc i32 %35 to i8
  %37 = and i8 %36, 63
  %38 = or disjoint i8 %37, -128
  %39 = getelementptr inbounds nuw i8, ptr %10, i64 1
  store i8 %38, ptr %39, align 1, !tbaa !7
  %40 = trunc i32 %9 to i8
  %41 = and i8 %40, 63
  %42 = or disjoint i8 %41, -128
  %43 = getelementptr inbounds nuw i8, ptr %10, i64 2
  store i8 %42, ptr %43, align 1, !tbaa !7
  br label %_ZN6duckdbL21charbound_encode_charEiPh.exit

44:                                               ; preds = %29
  %45 = icmp samesign ult i32 %9, 1114112
  br i1 %45, label %46, label %_ZN6duckdbL21charbound_encode_charEiPh.exit

46:                                               ; preds = %44
  %47 = lshr i32 %9, 18
  %48 = trunc nuw i32 %47 to i8
  %49 = or disjoint i8 %48, -16
  store i8 %49, ptr %10, align 1, !tbaa !7
  %50 = lshr i32 %9, 12
  %51 = trunc i32 %50 to i8
  %52 = and i8 %51, 63
  %53 = or disjoint i8 %52, -128
  %54 = getelementptr inbounds nuw i8, ptr %10, i64 1
  store i8 %53, ptr %54, align 1, !tbaa !7
  %55 = lshr i32 %9, 6
  %56 = trunc i32 %55 to i8
  %57 = and i8 %56, 63
  %58 = or disjoint i8 %57, -128
  %59 = getelementptr inbounds nuw i8, ptr %10, i64 2
  store i8 %58, ptr %59, align 1, !tbaa !7
  %60 = trunc i32 %9 to i8
  %61 = and i8 %60, 63
  %62 = or disjoint i8 %61, -128
  %63 = getelementptr inbounds nuw i8, ptr %10, i64 3
  store i8 %62, ptr %63, align 1, !tbaa !7
  br label %_ZN6duckdbL21charbound_encode_charEiPh.exit

_ZN6duckdbL21charbound_encode_charEiPh.exit:      ; preds = %12, %14, %17, %21, %31, %44, %46
  %.0.i = phi i64 [ 1, %14 ], [ 1, %17 ], [ 2, %21 ], [ 3, %31 ], [ 4, %46 ], [ 0, %12 ], [ 0, %44 ]
  %64 = add nuw nsw i64 %.0.i, %.036
  %65 = add nuw nsw i64 %.02735, 1
  %exitcond.not = icmp eq i64 %65, %4
  br i1 %exitcond.not, label %.loopexit, label %.lr.ph, !llvm.loop !26

.lr.ph39:                                         ; preds = %.preheader, %_ZN6duckdb20utf8proc_encode_charEiPh.exit
  %.238 = phi i64 [ %119, %_ZN6duckdb20utf8proc_encode_charEiPh.exit ], [ 0, %.preheader ]
  %.12837 = phi i64 [ %120, %_ZN6duckdb20utf8proc_encode_charEiPh.exit ], [ 0, %.preheader ]
  %66 = getelementptr inbounds nuw i32, ptr %0, i64 %.12837
  %67 = load i32, ptr %66, align 4, !tbaa !3
  %68 = getelementptr inbounds nuw i8, ptr %0, i64 %.238
  %69 = icmp slt i32 %67, 0
  br i1 %69, label %_ZN6duckdb20utf8proc_encode_charEiPh.exit, label %70

70:                                               ; preds = %.lr.ph39
  %71 = icmp samesign ult i32 %67, 128
  br i1 %71, label %72, label %74

72:                                               ; preds = %70
  %73 = trunc nuw nsw i32 %67 to i8
  store i8 %73, ptr %68, align 1, !tbaa !7
  br label %_ZN6duckdb20utf8proc_encode_charEiPh.exit

74:                                               ; preds = %70
  %75 = icmp samesign ult i32 %67, 2048
  br i1 %75, label %76, label %84

76:                                               ; preds = %74
  %77 = lshr i32 %67, 6
  %78 = trunc nuw i32 %77 to i8
  %79 = or disjoint i8 %78, -64
  store i8 %79, ptr %68, align 1, !tbaa !7
  %80 = trunc i32 %67 to i8
  %81 = and i8 %80, 63
  %82 = or disjoint i8 %81, -128
  %83 = getelementptr inbounds nuw i8, ptr %68, i64 1
  store i8 %82, ptr %83, align 1, !tbaa !7
  br label %_ZN6duckdb20utf8proc_encode_charEiPh.exit

84:                                               ; preds = %74
  %85 = icmp samesign ult i32 %67, 65536
  br i1 %85, label %86, label %99

86:                                               ; preds = %84
  %87 = lshr i32 %67, 12
  %88 = trunc nuw i32 %87 to i8
  %89 = or disjoint i8 %88, -32
  store i8 %89, ptr %68, align 1, !tbaa !7
  %90 = lshr i32 %67, 6
  %91 = trunc i32 %90 to i8
  %92 = and i8 %91, 63
  %93 = or disjoint i8 %92, -128
  %94 = getelementptr inbounds nuw i8, ptr %68, i64 1
  store i8 %93, ptr %94, align 1, !tbaa !7
  %95 = trunc i32 %67 to i8
  %96 = and i8 %95, 63
  %97 = or disjoint i8 %96, -128
  %98 = getelementptr inbounds nuw i8, ptr %68, i64 2
  store i8 %97, ptr %98, align 1, !tbaa !7
  br label %_ZN6duckdb20utf8proc_encode_charEiPh.exit

99:                                               ; preds = %84
  %100 = icmp samesign ult i32 %67, 1114112
  br i1 %100, label %101, label %_ZN6duckdb20utf8proc_encode_charEiPh.exit

101:                                              ; preds = %99
  %102 = lshr i32 %67, 18
  %103 = trunc nuw i32 %102 to i8
  %104 = or disjoint i8 %103, -16
  store i8 %104, ptr %68, align 1, !tbaa !7
  %105 = lshr i32 %67, 12
  %106 = trunc i32 %105 to i8
  %107 = and i8 %106, 63
  %108 = or disjoint i8 %107, -128
  %109 = getelementptr inbounds nuw i8, ptr %68, i64 1
  store i8 %108, ptr %109, align 1, !tbaa !7
  %110 = lshr i32 %67, 6
  %111 = trunc i32 %110 to i8
  %112 = and i8 %111, 63
  %113 = or disjoint i8 %112, -128
  %114 = getelementptr inbounds nuw i8, ptr %68, i64 2
  store i8 %113, ptr %114, align 1, !tbaa !7
  %115 = trunc i32 %67 to i8
  %116 = and i8 %115, 63
  %117 = or disjoint i8 %116, -128
  %118 = getelementptr inbounds nuw i8, ptr %68, i64 3
  store i8 %117, ptr %118, align 1, !tbaa !7
  br label %_ZN6duckdb20utf8proc_encode_charEiPh.exit

_ZN6duckdb20utf8proc_encode_charEiPh.exit:        ; preds = %.lr.ph39, %72, %76, %86, %99, %101
  %.0.i32 = phi i64 [ 1, %72 ], [ 2, %76 ], [ 3, %86 ], [ 4, %101 ], [ 0, %.lr.ph39 ], [ 0, %99 ]
  %119 = add nuw nsw i64 %.0.i32, %.238
  %120 = add nuw nsw i64 %.12837, 1
  %exitcond45.not = icmp eq i64 %120, %4
  br i1 %exitcond45.not, label %.loopexit, label %.lr.ph39, !llvm.loop !27

.loopexit:                                        ; preds = %_ZN6duckdbL21charbound_encode_charEiPh.exit, %_ZN6duckdb20utf8proc_encode_charEiPh.exit, %.preheader33, %.preheader
  %.1 = phi i64 [ 0, %.preheader ], [ 0, %.preheader33 ], [ %119, %_ZN6duckdb20utf8proc_encode_charEiPh.exit ], [ %64, %_ZN6duckdbL21charbound_encode_charEiPh.exit ]
  %121 = getelementptr inbounds i8, ptr %0, i64 %.1
  store i8 0, ptr %121, align 1, !tbaa !7
  br label %122

122:                                              ; preds = %3, %.loopexit
  %.029 = phi i64 [ %.1, %.loopexit ], [ %4, %3 ]
  ret i64 %.029
}